; Function Attrs: mustprogress uwtable
define void @_ZN5osgeo4proj9operation10Conversion40createLambertConicConformal_1SP_VariantBERKNS0_4util11PropertyMapERKNS0_6common5AngleERKNS7_5ScaleESA_SA_RKNS7_6LengthESG_(ptr dead_on_unwind noalias writable sret(%"class.dropbox::oxygen::nn.42") align 8 %0, ptr noundef nonnull align 8 dereferenceable(8) %1, ptr noundef nonnull align 8 dereferenceable(24) %2, ptr noundef nonnull align 8 dereferenceable(24) %3, ptr noundef nonnull align 8 dereferenceable(24) %4, ptr noundef nonnull align 8 dereferenceable(24) %5, ptr noundef nonnull align 8 dereferenceable(24) %6, ptr noundef nonnull align 8 dereferenceable(24) %7) local_unnamed_addr #0 align 2 personality ptr @__gxx_personality_v0 {
  %9 = alloca %"struct.osgeo::proj::operation::VectorOfValues", align 8
  call void @llvm.lifetime.start.p0(i64 24, ptr nonnull %9) #32
  call void @_ZN5osgeo4proj9operation12createParamsERKNS0_6common7MeasureES5_S5_S5_S5_S5_(ptr dead_on_unwind nonnull writable sret(%"struct.osgeo::proj::operation::VectorOfValues") align 8 %9, ptr noundef nonnull align 8 dereferenceable(24) %2, ptr noundef nonnull align 8 dereferenceable(24) %3, ptr noundef nonnull align 8 dereferenceable(24) %4, ptr noundef nonnull align 8 dereferenceable(24) %5, ptr noundef nonnull align 8 dereferenceable(24) %6, ptr noundef nonnull align 8 dereferenceable(24) %7)
  %10 = call noundef ptr @_ZN5osgeo4proj9operation10getMappingEi(i32 noundef 1102) #32, !noalias !127
  invoke fastcc void @_ZN5osgeo4proj9operationL16createConversionERKNS0_4util11PropertyMapEPKNS1_13MethodMappingERKSt6vectorIN7dropbox6oxygen2nnISt10shared_ptrINS1_14ParameterValueEEEESaISG_EE(ptr dead_on_unwind noalias writable align 8 %0, ptr noundef nonnull align 8 dereferenceable(8) %1, ptr noundef %10, ptr noundef nonnull readonly align 8 dereferenceable(24) %9)
          to label %_ZN5osgeo4proj9operation10Conversion6createERKNS0_4util11PropertyMapEiRKSt6vectorIN7dropbox6oxygen2nnISt10shared_ptrINS1_14ParameterValueEEEESaISE_EE.exit unwind label %11

_ZN5osgeo4proj9operation10Conversion6createERKNS0_4util11PropertyMapEiRKSt6vectorIN7dropbox6oxygen2nnISt10shared_ptrINS1_14ParameterValueEEEESaISE_EE.exit: ; preds = %8
  call void @_ZN5osgeo4proj9operation14VectorOfValuesD1Ev(ptr noundef nonnull align 8 dereferenceable(24) %9) #32
  call void @llvm.lifetime.end.p0(i64 24, ptr nonnull %9) #32
  ret void

11:                                               ; preds = %8
  %12 = landingpad { ptr, i32 }
          cleanup
  call void @_ZN5osgeo4proj9operation14VectorOfValuesD1Ev(ptr noundef nonnull align 8 dereferenceable(24) %9) #32
  call void @llvm.lifetime.end.p0(i64 24, ptr nonnull %9) #32
  resume { ptr, i32 } %12
}